target datalayout = "e-m:e-p270:32:32-p271:32:32-p272:64:64-i64:64-i128:128-f80:128-n8:16:32:64-S128"
target triple = "x86_64-pc-linux-gnu"

%struct.job_record = type { i32, ptr, ptr, ptr, ptr, i16, i32, i32, i32, ptr, i32, ptr, ptr, i16, ptr, double, i64, ptr, ptr, ptr, ptr, ptr, ptr, i32, ptr, i32, i64, i64, i32, i32, ptr, i16, i64, i64, i8, i32, ptr, ptr, ptr, ptr, ptr, ptr, ptr, ptr, i32, ptr, ptr, i32, ptr, i32, ptr, i32, ptr, i32, ptr, ptr, ptr, ptr, ptr, ptr, i32, i16, i64, ptr, ptr, ptr, ptr, %struct.acct_policy_limit_set_t, i16, ptr, ptr, ptr, ptr, ptr, i32, ptr, ptr, ptr, ptr, ptr, i32, i32, ptr, ptr, ptr, i16, ptr, ptr, i8, ptr, ptr, i64, i64, i8, i32, i32, i8, i32, ptr, i32, i64, i32, ptr, ptr, ptr, i8, i16, i64, i32, ptr, ptr, ptr, ptr, ptr, i16, i32, ptr, ptr, ptr, ptr, i32, ptr, i32, i16, i64, ptr, i32, i32, ptr, i64, ptr, ptr, i64, i32, i32, i64, i32, i32, ptr, ptr, ptr, ptr, ptr, ptr, ptr, ptr, ptr, ptr, ptr, ptr, i32, ptr, i16, i16, i16, i16, ptr, i32, i32, i8, i64 }
%struct.acct_policy_limit_set_t = type { i16, i16, ptr }
%struct.slurmdb_qos_rec_t = type { i64, ptr, i32, i32, i32, i32, i32, i32, ptr, ptr, ptr, ptr, ptr, ptr, i32, double, i32, i32, i32, i32, i32, i32, ptr, ptr, ptr, ptr, ptr, ptr, ptr, ptr, ptr, ptr, ptr, ptr, ptr, ptr, i32, i32, ptr, ptr, ptr, ptr, ptr, i16, i32, i32, ptr, ptr, double, double }
%struct.part_record = type { i32, ptr, ptr, ptr, ptr, ptr, ptr, i32, ptr, ptr, ptr, ptr, ptr, i32, i64, i32, ptr, ptr, ptr, ptr, ptr, i32, i32, ptr, i32, i32, i64, i32, i32, i16, i32, i32, i32, i32, ptr, ptr, ptr, ptr, ptr, double, i16, i16, i16, i16, ptr, ptr, i16, i16, i32, i16, i32, i32, i32, i32, i16, ptr, ptr, ptr }
%struct.acct_policy_validate_args = type { ptr, ptr, ptr, ptr, ptr, i8 }

; Function Attrs: nounwind uwtable
define dso_local void @acct_policy_set_qos_order(ptr noundef %0, ptr noundef %1, ptr noundef %2) #0 {
  %4 = alloca ptr, align 8
  %5 = alloca ptr, align 8
  %6 = alloca ptr, align 8
  store ptr %0, ptr %4, align 8
  store ptr %1, ptr %5, align 8
  store ptr %2, ptr %6, align 8
  %7 = load ptr, ptr %5, align 8
  store ptr null, ptr %7, align 8
  %8 = load ptr, ptr %6, align 8
  store ptr null, ptr %8, align 8
  %9 = load ptr, ptr %4, align 8
  %10 = getelementptr inbounds nuw %struct.job_record, ptr %9, i32 0, i32 103
  %11 = load ptr, ptr %10, align 8
  %12 = icmp ne ptr %11, null
  br i1 %12, label %13, label %71

13:                                               ; preds = %3
  %14 = load ptr, ptr %4, align 8
  %15 = getelementptr inbounds nuw %struct.job_record, ptr %14, i32 0, i32 89
  %16 = load ptr, ptr %15, align 8
  %17 = icmp ne ptr %16, null
  br i1 %17, label %18, label %65

18:                                               ; preds = %13
  %19 = load ptr, ptr %4, align 8
  %20 = getelementptr inbounds nuw %struct.job_record, ptr %19, i32 0, i32 89
  %21 = load ptr, ptr %20, align 8
  %22 = getelementptr inbounds nuw %struct.part_record, ptr %21, i32 0, i32 45
  %23 = load ptr, ptr %22, align 8
  %24 = icmp ne ptr %23, null
  br i1 %24, label %25, label %65

25:                                               ; preds = %18
  %26 = load ptr, ptr %4, align 8
  %27 = getelementptr inbounds nuw %struct.job_record, ptr %26, i32 0, i32 103
  %28 = load ptr, ptr %27, align 8
  %29 = getelementptr inbounds nuw %struct.slurmdb_qos_rec_t, ptr %28, i32 0, i32 3
  %30 = load i32, ptr %29, align 4
  %31 = zext i32 %30 to i64
  %32 = and i64 %31, 128
  %33 = icmp ne i64 %32, 0
  br i1 %33, label %34, label %45

34:                                               ; preds = %25
  %35 = load ptr, ptr %4, align 8
  %36 = getelementptr inbounds nuw %struct.job_record, ptr %35, i32 0, i32 103
  %37 = load ptr, ptr %36, align 8
  %38 = load ptr, ptr %5, align 8
  store ptr %37, ptr %38, align 8
  %39 = load ptr, ptr %4, align 8
  %40 = getelementptr inbounds nuw %struct.job_record, ptr %39, i32 0, i32 89
  %41 = load ptr, ptr %40, align 8
  %42 = getelementptr inbounds nuw %struct.part_record, ptr %41, i32 0, i32 45
  %43 = load ptr, ptr %42, align 8
  %44 = load ptr, ptr %6, align 8
  store ptr %43, ptr %44, align 8
  br label %56

45:                                               ; preds = %25
  %46 = load ptr, ptr %4, align 8
  %47 = getelementptr inbounds nuw %struct.job_record, ptr %46, i32 0, i32 89
  %48 = load ptr, ptr %47, align 8
  %49 = getelementptr inbounds nuw %struct.part_record, ptr %48, i32 0, i32 45
  %50 = load ptr, ptr %49, align 8
  %51 = load ptr, ptr %5, align 8
  store ptr %50, ptr %51, align 8
  %52 = load ptr, ptr %4, align 8
  %53 = getelementptr inbounds nuw %struct.job_record, ptr %52, i32 0, i32 103
  %54 = load ptr, ptr %53, align 8
  %55 = load ptr, ptr %6, align 8
  store ptr %54, ptr %55, align 8
  br label %56

56:                                               ; preds = %45, %34
  %57 = load ptr, ptr %5, align 8
  %58 = load ptr, ptr %57, align 8
  %59 = load ptr, ptr %6, align 8
  %60 = load ptr, ptr %59, align 8
  %61 = icmp eq ptr %58, %60
  br i1 %61, label %62, label %64

62:                                               ; preds = %56
  %63 = load ptr, ptr %6, align 8
  store ptr null, ptr %63, align 8
  br label %64

64:                                               ; preds = %62, %56
  br label %70

65:                                               ; preds = %18, %13
  %66 = load ptr, ptr %4, align 8
  %67 = getelementptr inbounds nuw %struct.job_record, ptr %66, i32 0, i32 103
  %68 = load ptr, ptr %67, align 8
  %69 = load ptr, ptr %5, align 8
  store ptr %68, ptr %69, align 8
  br label %70

70:                                               ; preds = %65, %64
  br label %91

71:                                               ; preds = %3
  %72 = load ptr, ptr %4, align 8
  %73 = getelementptr inbounds nuw %struct.job_record, ptr %72, i32 0, i32 89
  %74 = load ptr, ptr %73, align 8
  %75 = icmp ne ptr %74, null
  br i1 %75, label %76, label %90

76:                                               ; preds = %71
  %77 = load ptr, ptr %4, align 8
  %78 = getelementptr inbounds nuw %struct.job_record, ptr %77, i32 0, i32 89
  %79 = load ptr, ptr %78, align 8
  %80 = getelementptr inbounds nuw %struct.part_record, ptr %79, i32 0, i32 45
  %81 = load ptr, ptr %80, align 8
  %82 = icmp ne ptr %81, null
  br i1 %82, label %83, label %90

83:                                               ; preds = %76
  %84 = load ptr, ptr %4, align 8
  %85 = getelementptr inbounds nuw %struct.job_record, ptr %84, i32 0, i32 89
  %86 = load ptr, ptr %85, align 8
  %87 = getelementptr inbounds nuw %struct.part_record, ptr %86, i32 0, i32 45
  %88 = load ptr, ptr %87, align 8
  %89 = load ptr, ptr %5, align 8
  store ptr %88, ptr %89, align 8
  br label %90

90:                                               ; preds = %83, %76, %71
  br label %91

91:                                               ; preds = %90, %70
  ret void
}

; Function Attrs: nounwind uwtable
define internal i32 @_list_acct_policy_validate(ptr noundef %0, ptr noundef %1) #0 {
  %3 = alloca i32, align 4
  %4 = alloca ptr, align 8
  %5 = alloca ptr, align 8
  %6 = alloca ptr, align 8
  %7 = alloca ptr, align 8
  %8 = alloca ptr, align 8
  %9 = alloca ptr, align 8
  %10 = alloca %struct.job_record, align 8
  %11 = alloca i8, align 1
  %12 = alloca i32, align 4
  store ptr %0, ptr %4, align 8
  store ptr %1, ptr %5, align 8
  call void @llvm.lifetime.start.p0(i64 8, ptr %6) #8
  %13 = load ptr, ptr %4, align 8
  store ptr %13, ptr %6, align 8
  call void @llvm.lifetime.start.p0(i64 8, ptr %7) #8
  %14 = load ptr, ptr %5, align 8
  store ptr %14, ptr %7, align 8
  call void @llvm.lifetime.start.p0(i64 8, ptr %8) #8
  store ptr null, ptr %8, align 8
  call void @llvm.lifetime.start.p0(i64 8, ptr %9) #8
  store ptr null, ptr %9, align 8
  call void @llvm.lifetime.start.p0(i64 1152, ptr %10) #8
  call void @llvm.lifetime.start.p0(i64 1, ptr %11) #8
  %15 = load ptr, ptr %7, align 8
  %16 = getelementptr inbounds nuw %struct.acct_policy_validate_args, ptr %15, i32 0, i32 3
  %17 = load ptr, ptr %16, align 8
  %18 = getelementptr inbounds nuw %struct.job_record, ptr %10, i32 0, i32 103
  store ptr %17, ptr %18, align 8
  %19 = load ptr, ptr %6, align 8
  %20 = getelementptr inbounds nuw %struct.job_record, ptr %10, i32 0, i32 89
  store ptr %19, ptr %20, align 8
  call void @acct_policy_set_qos_order(ptr noundef %10, ptr noundef %8, ptr noundef %9)
  %21 = load ptr, ptr %7, align 8
  %22 = getelementptr inbounds nuw %struct.acct_policy_validate_args, ptr %21, i32 0, i32 2
  %23 = load ptr, ptr %22, align 8
  %24 = load ptr, ptr %6, align 8
  %25 = load ptr, ptr %7, align 8
  %26 = getelementptr inbounds nuw %struct.acct_policy_validate_args, ptr %25, i32 0, i32 1
  %27 = load ptr, ptr %26, align 8
  %28 = load ptr, ptr %8, align 8
  %29 = load ptr, ptr %9, align 8
  %30 = load ptr, ptr %7, align 8
  %31 = getelementptr inbounds nuw %struct.acct_policy_validate_args, ptr %30, i32 0, i32 4
  %32 = load ptr, ptr %31, align 8
  %33 = load ptr, ptr %7, align 8
  %34 = getelementptr inbounds nuw %struct.acct_policy_validate_args, ptr %33, i32 0, i32 0
  %35 = load ptr, ptr %34, align 8
  %36 = load ptr, ptr %7, align 8
  %37 = getelementptr inbounds nuw %struct.acct_policy_validate_args, ptr %36, i32 0, i32 5
  %38 = load i8, ptr %37, align 8, !range !8, !noundef !9
  %39 = trunc i8 %38 to i1
  %40 = call zeroext i1 @_acct_policy_validate(ptr noundef %23, ptr noundef %24, ptr noundef %27, ptr noundef %28, ptr noundef %29, ptr noundef %32, ptr noundef %35, i1 noundef zeroext %39, i1 noundef zeroext true)
  %41 = zext i1 %40 to i8
  store i8 %41, ptr %11, align 1
  %42 = load i8, ptr %11, align 1, !range !8, !noundef !9
  %43 = trunc i8 %42 to i1
  br i1 %43, label %45, label %44

44:                                               ; preds = %2
  store i32 -1, ptr %3, align 4
  store i32 1, ptr %12, align 4
  br label %49

45:                                               ; preds = %2
  %46 = load i8, ptr %11, align 1, !range !8, !noundef !9
  %47 = trunc i8 %46 to i1
  %48 = zext i1 %47 to i32
  store i32 %48, ptr %3, align 4
  store i32 1, ptr %12, align 4
  br label %49

49:                                               ; preds = %45, %44
  call void @llvm.lifetime.end.p0(i64 1, ptr %11) #8
  call void @llvm.lifetime.end.p0(i64 1152, ptr %10) #8
  call void @llvm.lifetime.end.p0(i64 8, ptr %9) #8
  call void @llvm.lifetime.end.p0(i64 8, ptr %8) #8
  call void @llvm.lifetime.end.p0(i64 8, ptr %7) #8
  call void @llvm.lifetime.end.p0(i64 8, ptr %6) #8
  %50 = load i32, ptr %3, align 4
  ret i32 %50
}