; Function Attrs: nounwind uwtable
define internal noundef range(i32 -1, 2) i32 @_list_acct_policy_validate(ptr noundef readonly captures(address_is_null) %0, ptr noundef readonly captures(none) %1) #0 {
  %3 = getelementptr inbounds nuw i8, ptr %1, i64 24
  %4 = load ptr, ptr %3, align 8
  %.not.i = icmp eq ptr %4, null
  %.not27.i = icmp eq ptr %0, null
  br i1 %.not.i, label %14, label %5

5:                                                ; preds = %2
  br i1 %.not27.i, label %acct_policy_set_qos_order.exit, label %6

6:                                                ; preds = %5
  %7 = getelementptr inbounds nuw i8, ptr %0, i64 296
  %8 = load ptr, ptr %7, align 8
  %.not30.i = icmp eq ptr %8, null
  br i1 %.not30.i, label %acct_policy_set_qos_order.exit, label %9

9:                                                ; preds = %6
  %10 = getelementptr inbounds nuw i8, ptr %4, i64 20
  %11 = load i32, ptr %10, align 4
  %12 = and i32 %11, 128
  %.not31.i = icmp eq i32 %12, 0
  %spec.select = select i1 %.not31.i, ptr %8, ptr %4
  %spec.select19 = select i1 %.not31.i, ptr %4, ptr %8
  %13 = icmp eq ptr %8, %4
  %spec.store.select.i = select i1 %13, ptr null, ptr %spec.select19
  br label %acct_policy_set_qos_order.exit

14:                                               ; preds = %2
  br i1 %.not27.i, label %acct_policy_set_qos_order.exit, label %15

15:                                               ; preds = %14
  %16 = getelementptr inbounds nuw i8, ptr %0, i64 296
  %17 = load ptr, ptr %16, align 8
  br label %acct_policy_set_qos_order.exit

acct_policy_set_qos_order.exit:                   ; preds = %15, %5, %6, %9, %14
  %.018 = phi ptr [ null, %14 ], [ %spec.store.select.i, %9 ], [ null, %6 ], [ null, %5 ], [ null, %15 ]
  %.1 = phi ptr [ null, %14 ], [ %spec.select, %9 ], [ %4, %6 ], [ %4, %5 ], [ %17, %15 ]
  %18 = getelementptr inbounds nuw i8, ptr %1, i64 16
  %19 = load ptr, ptr %18, align 8
  %20 = getelementptr inbounds nuw i8, ptr %1, i64 8
  %21 = load ptr, ptr %20, align 8
  %22 = getelementptr inbounds nuw i8, ptr %1, i64 32
  %23 = load ptr, ptr %22, align 8
  %24 = load ptr, ptr %1, align 8
  %25 = getelementptr inbounds nuw i8, ptr %1, i64 40
  %26 = load i8, ptr %25, align 8, !range !21, !noundef !22
  %27 = trunc nuw i8 %26 to i1
  %28 = tail call fastcc zeroext i1 @_acct_policy_validate(ptr noundef %19, ptr noundef %0, ptr noundef %21, ptr noundef %.1, ptr noundef %.018, ptr noundef %23, ptr noundef %24, i1 noundef zeroext %27)
  %. = select i1 %28, i32 1, i32 -1
  ret i32 %.
}